; Function Attrs: nounwind uwtable
define ptr @Gia_PermuteSpecialOrder(ptr noundef %0) local_unnamed_addr #0 {
  tail call void @Gia_ManCreateRefs(ptr noundef %0) #18
  %2 = getelementptr i8, ptr %0, i64 16
  %.val16 = load i32, ptr %2, align 8, !tbaa !34
  %3 = getelementptr i8, ptr %0, i64 64
  %.val17 = load ptr, ptr %3, align 8, !tbaa !35
  %4 = getelementptr i8, ptr %.val17, i64 4
  %.val17.val = load i32, ptr %4, align 4, !tbaa !36
  %5 = sub nsw i32 %.val17.val, %.val16
  %6 = tail call noalias dereferenceable_or_null(16) ptr @malloc(i64 noundef 16) #19
  %7 = add i32 %5, -1
  %or.cond.i = icmp ult i32 %7, 15
  %spec.store.select.i = select i1 %or.cond.i, i32 16, i32 %5
  %8 = getelementptr inbounds nuw i8, ptr %6, i64 4
  store i32 0, ptr %8, align 4, !tbaa !36
  store i32 %spec.store.select.i, ptr %6, align 8, !tbaa !37
  %.not.i = icmp eq i32 %spec.store.select.i, 0
  br i1 %.not.i, label %Vec_IntAlloc.exit, label %9

9:                                                ; preds = %1
  %10 = sext i32 %spec.store.select.i to i64
  %11 = shl nsw i64 %10, 2
  %12 = tail call noalias ptr @malloc(i64 noundef %11) #19
  br label %Vec_IntAlloc.exit

Vec_IntAlloc.exit:                                ; preds = %1, %9
  %13 = phi ptr [ %12, %9 ], [ null, %1 ]
  %14 = getelementptr inbounds nuw i8, ptr %6, i64 8
  store ptr %13, ptr %14, align 8, !tbaa !38
  %15 = getelementptr i8, ptr %0, i64 32
  %16 = icmp sgt i32 %.val17.val, %.val16
  br i1 %16, label %.lr.ph, label %.critedge

.lr.ph:                                           ; preds = %Vec_IntAlloc.exit
  %17 = getelementptr i8, ptr %0, i64 144
  br label %18

18:                                               ; preds = %.lr.ph, %Vec_IntPush.exit
  %19 = phi ptr [ %13, %.lr.ph ], [ %.pre.i32, %Vec_IntPush.exit ]
  %indvars.iv = phi i64 [ 0, %.lr.ph ], [ %indvars.iv.next, %Vec_IntPush.exit ]
  %.val1928 = phi ptr [ %.val17, %.lr.ph ], [ %.val19, %Vec_IntPush.exit ]
  %.val20 = load ptr, ptr %15, align 8, !tbaa !29
  %.not = icmp eq ptr %.val20, null
  %.val15.pre.pre36 = load i32, ptr %8, align 4, !tbaa !36
  br i1 %.not, label %.critedge, label %20

20:                                               ; preds = %18
  %21 = getelementptr i8, ptr %.val1928, i64 8
  %.val21.val = load ptr, ptr %21, align 8, !tbaa !38
  %22 = getelementptr inbounds nuw i32, ptr %.val21.val, i64 %indvars.iv
  %23 = load i32, ptr %22, align 4, !tbaa !30
  %24 = zext i32 %23 to i64
  %.val14 = load ptr, ptr %17, align 8, !tbaa !3
  %sext.i = shl nuw i64 %24, 32
  %25 = ashr exact i64 %sext.i, 30
  %26 = getelementptr inbounds i8, ptr %.val14, i64 %25
  %27 = load i32, ptr %26, align 4, !tbaa !30
  %28 = load i32, ptr %6, align 8, !tbaa !37
  %29 = icmp eq i32 %.val15.pre.pre36, %28
  br i1 %29, label %30, label %Vec_IntPush.exit

30:                                               ; preds = %20
  %31 = icmp slt i32 %.val15.pre.pre36, 16
  br i1 %31, label %32, label %37

32:                                               ; preds = %30
  %.not9.i.i = icmp eq ptr %19, null
  br i1 %.not9.i.i, label %35, label %33

33:                                               ; preds = %32
  %34 = tail call dereferenceable_or_null(64) ptr @realloc(ptr noundef nonnull %19, i64 noundef 64) #20
  br label %Vec_IntPush.exit.sink.split

35:                                               ; preds = %32
  %36 = tail call noalias dereferenceable_or_null(64) ptr @malloc(i64 noundef 64) #19
  br label %Vec_IntPush.exit.sink.split

37:                                               ; preds = %30
  %38 = shl nuw nsw i32 %.val15.pre.pre36, 1
  %.not9.i9.i = icmp eq ptr %19, null
  %39 = zext nneg i32 %38 to i64
  %40 = shl nuw nsw i64 %39, 2
  br i1 %.not9.i9.i, label %43, label %41

41:                                               ; preds = %37
  %42 = tail call ptr @realloc(ptr noundef nonnull %19, i64 noundef %40) #20
  br label %Vec_IntPush.exit.sink.split

43:                                               ; preds = %37
  %44 = tail call noalias ptr @malloc(i64 noundef %40) #19
  br label %Vec_IntPush.exit.sink.split

Vec_IntPush.exit.sink.split:                      ; preds = %41, %43, %33, %35
  %.sink44 = phi ptr [ %34, %33 ], [ %36, %35 ], [ %42, %41 ], [ %44, %43 ]
  %.sink = phi i32 [ 16, %33 ], [ 16, %35 ], [ %38, %41 ], [ %38, %43 ]
  store ptr %.sink44, ptr %14, align 8, !tbaa !38
  store i32 %.sink, ptr %6, align 8, !tbaa !37
  br label %Vec_IntPush.exit

Vec_IntPush.exit:                                 ; preds = %Vec_IntPush.exit.sink.split, %20
  %.pre.i32 = phi ptr [ %19, %20 ], [ %.sink44, %Vec_IntPush.exit.sink.split ]
  %45 = add nsw i32 %.val15.pre.pre36, 1
  store i32 %45, ptr %8, align 4, !tbaa !36
  %46 = sext i32 %.val15.pre.pre36 to i64
  %47 = getelementptr inbounds i32, ptr %.pre.i32, i64 %46
  store i32 %27, ptr %47, align 4, !tbaa !30
  %indvars.iv.next = add nuw nsw i64 %indvars.iv, 1
  %.val18 = load i32, ptr %2, align 8, !tbaa !34
  %.val19 = load ptr, ptr %3, align 8, !tbaa !35
  %48 = getelementptr i8, ptr %.val19, i64 4
  %.val19.val = load i32, ptr %48, align 4, !tbaa !36
  %49 = sub nsw i32 %.val19.val, %.val18
  %50 = sext i32 %49 to i64
  %51 = icmp slt i64 %indvars.iv.next, %50
  br i1 %51, label %18, label %.critedge.thread, !llvm.loop !39

.critedge.thread:                                 ; preds = %Vec_IntPush.exit
  %.val15.pre.pre = load i32, ptr %8, align 4, !tbaa !36
  %52 = tail call ptr @Abc_QuickSortCost(ptr noundef nonnull %.pre.i32, i32 noundef %.val15.pre.pre, i32 noundef 1) #18
  br label %54

.critedge:                                        ; preds = %18, %Vec_IntAlloc.exit
  %.val15 = phi i32 [ 0, %Vec_IntAlloc.exit ], [ %.val15.pre.pre36, %18 ]
  %.val22 = phi ptr [ %13, %Vec_IntAlloc.exit ], [ %19, %18 ]
  %53 = tail call ptr @Abc_QuickSortCost(ptr noundef %.val22, i32 noundef %.val15, i32 noundef 1) #18
  %.not.i23 = icmp eq ptr %.val22, null
  br i1 %.not.i23, label %Vec_IntFree.exit, label %54

54:                                               ; preds = %.critedge.thread, %.critedge
  %55 = phi ptr [ %52, %.critedge.thread ], [ %53, %.critedge ]
  %.val2241 = phi ptr [ %.pre.i32, %.critedge.thread ], [ %.val22, %.critedge ]
  tail call void @free(ptr noundef nonnull %.val2241) #18
  br label %Vec_IntFree.exit

Vec_IntFree.exit:                                 ; preds = %.critedge, %54
  %56 = phi ptr [ %53, %.critedge ], [ %55, %54 ]
  tail call void @free(ptr noundef nonnull %6) #18
  ret ptr %56
}